target datalayout = "e-m:e-p270:32:32-p271:32:32-p272:64:64-i64:64-i128:128-f80:128-n8:16:32:64-S128"
target triple = "x86_64-pc-linux-gnu"

%"class.std::vector.15" = type { %"struct.std::_Vector_base.16" }
%"struct.std::_Vector_base.16" = type { %"struct.std::_Vector_base<gmx::AnalysisDataValue, std::allocator<gmx::AnalysisDataValue>>::_Vector_impl" }
%"struct.std::_Vector_base<gmx::AnalysisDataValue, std::allocator<gmx::AnalysisDataValue>>::_Vector_impl" = type { %"struct.std::_Vector_base<gmx::AnalysisDataValue, std::allocator<gmx::AnalysisDataValue>>::_Vector_impl_data" }
%"struct.std::_Vector_base<gmx::AnalysisDataValue, std::allocator<gmx::AnalysisDataValue>>::_Vector_impl_data" = type { ptr, ptr, ptr }
%"class.gmx::AnalysisDataStorageFrame" = type <{ ptr, %"class.std::vector.15", i32, i32, i32, i8, [3 x i8] }>

; Function Attrs: mustprogress nounwind uwtable
define linkonce_odr void @_ZNSt15__new_allocatorIN3gmx17AnalysisDataValueEED2Ev(ptr noundef nonnull align 1 dereferenceable(1) %0) unnamed_addr #0 comdat align 2 {
  %2 = alloca ptr, align 8
  store ptr %0, ptr %2, align 8
  ret void
}

; Function Attrs: mustprogress nounwind uwtable
define linkonce_odr void @_ZNSt15__new_allocatorIN3gmx17AnalysisDataValueEE10deallocateEPS1_m(ptr noundef nonnull align 1 dereferenceable(1) %0, ptr noundef %1, i64 noundef %2) #0 comdat align 2 {
  %4 = alloca ptr, align 8
  %5 = alloca ptr, align 8
  %6 = alloca i64, align 8
  store ptr %0, ptr %4, align 8
  store ptr %1, ptr %5, align 8
  store i64 %2, ptr %6, align 8
  %7 = load ptr, ptr %5, align 8
  call void @_ZdlPv(ptr noundef %7) #14
  ret void
}

; Function Attrs: mustprogress nounwind uwtable
define linkonce_odr void @_ZNSt15__new_allocatorIN3gmx17AnalysisDataValueEEC2Ev(ptr noundef nonnull align 1 dereferenceable(1) %0) unnamed_addr #0 comdat align 2 {
  %2 = alloca ptr, align 8
  store ptr %0, ptr %2, align 8
  ret void
}

; Function Attrs: mustprogress nounwind uwtable
define linkonce_odr void @_ZNSaIN3gmx17AnalysisDataValueEED2Ev(ptr noundef nonnull align 1 dereferenceable(1) %0) unnamed_addr #0 comdat align 2 {
  %2 = alloca ptr, align 8
  store ptr %0, ptr %2, align 8
  %3 = load ptr, ptr %2, align 8
  call void @_ZNSt15__new_allocatorIN3gmx17AnalysisDataValueEED2Ev(ptr noundef nonnull align 1 dereferenceable(1) %3) #12
  ret void
}

; Function Attrs: mustprogress uwtable
define linkonce_odr void @_ZNSt16allocator_traitsISaIN3gmx17AnalysisDataValueEEE10deallocateERS2_PS1_m(ptr noundef nonnull align 1 dereferenceable(1) %0, ptr noundef %1, i64 noundef %2) #1 comdat align 2 {
  %4 = alloca ptr, align 8
  %5 = alloca ptr, align 8
  %6 = alloca i64, align 8
  store ptr %0, ptr %4, align 8
  store ptr %1, ptr %5, align 8
  store i64 %2, ptr %6, align 8
  %7 = load ptr, ptr %4, align 8
  %8 = load ptr, ptr %5, align 8
  %9 = load i64, ptr %6, align 8
  call void @_ZNSt15__new_allocatorIN3gmx17AnalysisDataValueEE10deallocateEPS1_m(ptr noundef nonnull align 1 dereferenceable(1) %7, ptr noundef %8, i64 noundef %9)
  ret void
}

; Function Attrs: mustprogress nounwind uwtable
define linkonce_odr void @_ZNSt12_Destroy_auxILb1EE9__destroyIPN3gmx17AnalysisDataValueEEEvT_S5_(ptr noundef %0, ptr noundef %1) #0 comdat align 2 {
  %3 = alloca ptr, align 8
  %4 = alloca ptr, align 8
  store ptr %0, ptr %3, align 8
  store ptr %1, ptr %4, align 8
  ret void
}

; Function Attrs: mustprogress nounwind uwtable
define linkonce_odr void @_ZNSt12_Vector_baseIN3gmx17AnalysisDataValueESaIS1_EE17_Vector_impl_dataC2Ev(ptr noundef nonnull align 8 dereferenceable(24) %0) unnamed_addr #0 comdat align 2 {
  %2 = alloca ptr, align 8
  store ptr %0, ptr %2, align 8
  %3 = load ptr, ptr %2, align 8
  %4 = getelementptr inbounds %"struct.std::_Vector_base<gmx::AnalysisDataValue, std::allocator<gmx::AnalysisDataValue>>::_Vector_impl_data", ptr %3, i32 0, i32 0
  store ptr null, ptr %4, align 8
  %5 = getelementptr inbounds %"struct.std::_Vector_base<gmx::AnalysisDataValue, std::allocator<gmx::AnalysisDataValue>>::_Vector_impl_data", ptr %3, i32 0, i32 1
  store ptr null, ptr %5, align 8
  %6 = getelementptr inbounds %"struct.std::_Vector_base<gmx::AnalysisDataValue, std::allocator<gmx::AnalysisDataValue>>::_Vector_impl_data", ptr %3, i32 0, i32 2
  store ptr null, ptr %6, align 8
  ret void
}

; Function Attrs: mustprogress nounwind uwtable
define linkonce_odr void @_ZNSaIN3gmx17AnalysisDataValueEEC2Ev(ptr noundef nonnull align 1 dereferenceable(1) %0) unnamed_addr #0 comdat align 2 {
  %2 = alloca ptr, align 8
  store ptr %0, ptr %2, align 8
  %3 = load ptr, ptr %2, align 8
  call void @_ZNSt15__new_allocatorIN3gmx17AnalysisDataValueEEC2Ev(ptr noundef nonnull align 1 dereferenceable(1) %3) #12
  ret void
}

; Function Attrs: mustprogress nounwind uwtable
define linkonce_odr void @_ZNSt12_Vector_baseIN3gmx17AnalysisDataValueESaIS1_EE12_Vector_implD2Ev(ptr noundef nonnull align 8 dereferenceable(24) %0) unnamed_addr #0 comdat align 2 {
  %2 = alloca ptr, align 8
  store ptr %0, ptr %2, align 8
  %3 = load ptr, ptr %2, align 8
  call void @_ZNSaIN3gmx17AnalysisDataValueEED2Ev(ptr noundef nonnull align 1 dereferenceable(1) %3) #12
  ret void
}

; Function Attrs: mustprogress uwtable
define linkonce_odr void @_ZNSt12_Vector_baseIN3gmx17AnalysisDataValueESaIS1_EE13_M_deallocateEPS1_m(ptr noundef nonnull align 8 dereferenceable(24) %0, ptr noundef %1, i64 noundef %2) #1 comdat align 2 {
  %4 = alloca ptr, align 8
  %5 = alloca ptr, align 8
  %6 = alloca i64, align 8
  store ptr %0, ptr %4, align 8
  store ptr %1, ptr %5, align 8
  store i64 %2, ptr %6, align 8
  %7 = load ptr, ptr %4, align 8
  %8 = load ptr, ptr %5, align 8
  %9 = icmp ne ptr %8, null
  br i1 %9, label %10, label %14

10:                                               ; preds = %3
  %11 = getelementptr inbounds %"struct.std::_Vector_base.16", ptr %7, i32 0, i32 0
  %12 = load ptr, ptr %5, align 8
  %13 = load i64, ptr %6, align 8
  call void @_ZNSt16allocator_traitsISaIN3gmx17AnalysisDataValueEEE10deallocateERS2_PS1_m(ptr noundef nonnull align 1 dereferenceable(1) %11, ptr noundef %12, i64 noundef %13)
  br label %14

14:                                               ; preds = %10, %3
  ret void
}

; Function Attrs: mustprogress uwtable
define linkonce_odr void @_ZSt8_DestroyIPN3gmx17AnalysisDataValueEEvT_S3_(ptr noundef %0, ptr noundef %1) #1 comdat {
  %3 = alloca ptr, align 8
  %4 = alloca ptr, align 8
  store ptr %0, ptr %3, align 8
  store ptr %1, ptr %4, align 8
  %5 = load ptr, ptr %3, align 8
  %6 = load ptr, ptr %4, align 8
  call void @_ZNSt12_Destroy_auxILb1EE9__destroyIPN3gmx17AnalysisDataValueEEEvT_S5_(ptr noundef %5, ptr noundef %6)
  ret void
}

; Function Attrs: mustprogress nounwind uwtable
define linkonce_odr void @_ZNSt12_Vector_baseIN3gmx17AnalysisDataValueESaIS1_EE12_Vector_implC2Ev(ptr noundef nonnull align 8 dereferenceable(24) %0) unnamed_addr #0 comdat align 2 {
  %2 = alloca ptr, align 8
  store ptr %0, ptr %2, align 8
  %3 = load ptr, ptr %2, align 8
  call void @_ZNSaIN3gmx17AnalysisDataValueEEC2Ev(ptr noundef nonnull align 1 dereferenceable(1) %3) #12
  call void @_ZNSt12_Vector_baseIN3gmx17AnalysisDataValueESaIS1_EE17_Vector_impl_dataC2Ev(ptr noundef nonnull align 8 dereferenceable(24) %3) #12
  ret void
}

; Function Attrs: noreturn nounwind uwtable
define linkonce_odr hidden void @__clang_call_terminate(ptr noundef %0) #4 comdat {
  %2 = call ptr @__cxa_begin_catch(ptr %0) #12
  call void @_ZSt9terminatev() #15
  unreachable
}

; Function Attrs: mustprogress nounwind uwtable
define linkonce_odr void @_ZNSt12_Vector_baseIN3gmx17AnalysisDataValueESaIS1_EED2Ev(ptr noundef nonnull align 8 dereferenceable(24) %0) unnamed_addr #0 comdat align 2 personality ptr @__gxx_personality_v0 {
  %2 = alloca ptr, align 8
  store ptr %0, ptr %2, align 8
  %3 = load ptr, ptr %2, align 8
  %4 = getelementptr inbounds %"struct.std::_Vector_base.16", ptr %3, i32 0, i32 0
  %5 = getelementptr inbounds %"struct.std::_Vector_base<gmx::AnalysisDataValue, std::allocator<gmx::AnalysisDataValue>>::_Vector_impl_data", ptr %4, i32 0, i32 0
  %6 = load ptr, ptr %5, align 8
  %7 = getelementptr inbounds %"struct.std::_Vector_base.16", ptr %3, i32 0, i32 0
  %8 = getelementptr inbounds %"struct.std::_Vector_base<gmx::AnalysisDataValue, std::allocator<gmx::AnalysisDataValue>>::_Vector_impl_data", ptr %7, i32 0, i32 2
  %9 = load ptr, ptr %8, align 8
  %10 = getelementptr inbounds %"struct.std::_Vector_base.16", ptr %3, i32 0, i32 0
  %11 = getelementptr inbounds %"struct.std::_Vector_base<gmx::AnalysisDataValue, std::allocator<gmx::AnalysisDataValue>>::_Vector_impl_data", ptr %10, i32 0, i32 0
  %12 = load ptr, ptr %11, align 8
  %13 = ptrtoint ptr %9 to i64
  %14 = ptrtoint ptr %12 to i64
  %15 = sub i64 %13, %14
  %16 = sdiv exact i64 %15, 16
  invoke void @_ZNSt12_Vector_baseIN3gmx17AnalysisDataValueESaIS1_EE13_M_deallocateEPS1_m(ptr noundef nonnull align 8 dereferenceable(24) %3, ptr noundef %6, i64 noundef %16)
          to label %17 unwind label %19

17:                                               ; preds = %1
  %18 = getelementptr inbounds %"struct.std::_Vector_base.16", ptr %3, i32 0, i32 0
  call void @_ZNSt12_Vector_baseIN3gmx17AnalysisDataValueESaIS1_EE12_Vector_implD2Ev(ptr noundef nonnull align 8 dereferenceable(24) %18) #12
  ret void

19:                                               ; preds = %1
  %20 = landingpad { ptr, i32 }
          catch ptr null
  %21 = extractvalue { ptr, i32 } %20, 0
  call void @__clang_call_terminate(ptr %21) #15
  unreachable
}

; Function Attrs: mustprogress uwtable
define linkonce_odr void @_ZSt8_DestroyIPN3gmx17AnalysisDataValueES1_EvT_S3_RSaIT0_E(ptr noundef %0, ptr noundef %1, ptr noundef nonnull align 1 dereferenceable(1) %2) #1 comdat {
  %4 = alloca ptr, align 8
  %5 = alloca ptr, align 8
  %6 = alloca ptr, align 8
  store ptr %0, ptr %4, align 8
  store ptr %1, ptr %5, align 8
  store ptr %2, ptr %6, align 8
  %7 = load ptr, ptr %4, align 8
  %8 = load ptr, ptr %5, align 8
  call void @_ZSt8_DestroyIPN3gmx17AnalysisDataValueEEvT_S3_(ptr noundef %7, ptr noundef %8)
  ret void
}

; Function Attrs: mustprogress nounwind uwtable
define linkonce_odr noundef nonnull align 1 dereferenceable(1) ptr @_ZNSt12_Vector_baseIN3gmx17AnalysisDataValueESaIS1_EE19_M_get_Tp_allocatorEv(ptr noundef nonnull align 8 dereferenceable(24) %0) #0 comdat align 2 {
  %2 = alloca ptr, align 8
  store ptr %0, ptr %2, align 8
  %3 = load ptr, ptr %2, align 8
  %4 = getelementptr inbounds %"struct.std::_Vector_base.16", ptr %3, i32 0, i32 0
  ret ptr %4
}

; Function Attrs: mustprogress nounwind uwtable
define linkonce_odr void @_ZNSt12_Vector_baseIN3gmx17AnalysisDataValueESaIS1_EEC2Ev(ptr noundef nonnull align 8 dereferenceable(24) %0) unnamed_addr #0 comdat align 2 {
  %2 = alloca ptr, align 8
  store ptr %0, ptr %2, align 8
  %3 = load ptr, ptr %2, align 8
  %4 = getelementptr inbounds %"struct.std::_Vector_base.16", ptr %3, i32 0, i32 0
  call void @_ZNSt12_Vector_baseIN3gmx17AnalysisDataValueESaIS1_EE12_Vector_implC2Ev(ptr noundef nonnull align 8 dereferenceable(24) %4) #12
  ret void
}

; Function Attrs: mustprogress nounwind uwtable
define linkonce_odr void @_ZNSt6vectorIN3gmx17AnalysisDataValueESaIS1_EED2Ev(ptr noundef nonnull align 8 dereferenceable(24) %0) unnamed_addr #0 comdat align 2 personality ptr @__gxx_personality_v0 {
  %2 = alloca ptr, align 8
  store ptr %0, ptr %2, align 8
  %3 = load ptr, ptr %2, align 8
  %4 = getelementptr inbounds %"struct.std::_Vector_base.16", ptr %3, i32 0, i32 0
  %5 = getelementptr inbounds %"struct.std::_Vector_base<gmx::AnalysisDataValue, std::allocator<gmx::AnalysisDataValue>>::_Vector_impl_data", ptr %4, i32 0, i32 0
  %6 = load ptr, ptr %5, align 8
  %7 = getelementptr inbounds %"struct.std::_Vector_base.16", ptr %3, i32 0, i32 0
  %8 = getelementptr inbounds %"struct.std::_Vector_base<gmx::AnalysisDataValue, std::allocator<gmx::AnalysisDataValue>>::_Vector_impl_data", ptr %7, i32 0, i32 1
  %9 = load ptr, ptr %8, align 8
  %10 = call noundef nonnull align 1 dereferenceable(1) ptr @_ZNSt12_Vector_baseIN3gmx17AnalysisDataValueESaIS1_EE19_M_get_Tp_allocatorEv(ptr noundef nonnull align 8 dereferenceable(24) %3) #12
  invoke void @_ZSt8_DestroyIPN3gmx17AnalysisDataValueES1_EvT_S3_RSaIT0_E(ptr noundef %6, ptr noundef %9, ptr noundef nonnull align 1 dereferenceable(1) %10)
          to label %11 unwind label %12

11:                                               ; preds = %1
  call void @_ZNSt12_Vector_baseIN3gmx17AnalysisDataValueESaIS1_EED2Ev(ptr noundef nonnull align 8 dereferenceable(24) %3) #12
  ret void

12:                                               ; preds = %1
  %13 = landingpad { ptr, i32 }
          catch ptr null
  %14 = extractvalue { ptr, i32 } %13, 0
  call void @__clang_call_terminate(ptr %14) #15
  unreachable
}

; Function Attrs: mustprogress nounwind uwtable
define linkonce_odr void @_ZNSt6vectorIN3gmx17AnalysisDataValueESaIS1_EEC2Ev(ptr noundef nonnull align 8 dereferenceable(24) %0) unnamed_addr #0 comdat align 2 {
  %2 = alloca ptr, align 8
  store ptr %0, ptr %2, align 8
  %3 = load ptr, ptr %2, align 8
  call void @_ZNSt12_Vector_baseIN3gmx17AnalysisDataValueESaIS1_EEC2Ev(ptr noundef nonnull align 8 dereferenceable(24) %3) #12
  ret void
}

; Function Attrs: mustprogress uwtable
define void @_ZN3gmx24AnalysisDataStorageFrameC2ERKNS_20AbstractAnalysisDataE(ptr noundef nonnull align 8 dereferenceable(45) %0, ptr noundef nonnull align 8 dereferenceable(16) %1) unnamed_addr #1 align 2 personality ptr @__gxx_personality_v0 {
  %3 = alloca ptr, align 8
  %4 = alloca ptr, align 8
  %5 = alloca ptr, align 8
  %6 = alloca i32, align 4
  %7 = alloca i32, align 4
  %8 = alloca i32, align 4
  store ptr %0, ptr %3, align 8
  store ptr %1, ptr %4, align 8
  %9 = load ptr, ptr %3, align 8
  %10 = getelementptr inbounds %"class.gmx::AnalysisDataStorageFrame", ptr %9, i32 0, i32 0
  store ptr null, ptr %10, align 8
  %11 = getelementptr inbounds %"class.gmx::AnalysisDataStorageFrame", ptr %9, i32 0, i32 1
  call void @_ZNSt6vectorIN3gmx17AnalysisDataValueESaIS1_EEC2Ev(ptr noundef nonnull align 8 dereferenceable(24) %11) #12
  %12 = getelementptr inbounds %"class.gmx::AnalysisDataStorageFrame", ptr %9, i32 0, i32 2
  store i32 0, ptr %12, align 8
  %13 = getelementptr inbounds %"class.gmx::AnalysisDataStorageFrame", ptr %9, i32 0, i32 3
  store i32 0, ptr %13, align 4
  %14 = getelementptr inbounds %"class.gmx::AnalysisDataStorageFrame", ptr %9, i32 0, i32 4
  %15 = load ptr, ptr %4, align 8
  %16 = invoke noundef i32 @_ZNK3gmx20AbstractAnalysisData11columnCountEi(ptr noundef nonnull align 8 dereferenceable(16) %15, i32 noundef 0)
          to label %17 unwind label %35

17:                                               ; preds = %2
  store i32 %16, ptr %14, align 8
  %18 = getelementptr inbounds %"class.gmx::AnalysisDataStorageFrame", ptr %9, i32 0, i32 5
  store i8 0, ptr %18, align 4
  store i32 0, ptr %7, align 4
  store i32 0, ptr %8, align 4
  br label %19

19:                                               ; preds = %32, %17
  %20 = load i32, ptr %8, align 4
  %21 = load ptr, ptr %4, align 8
  %22 = invoke noundef i32 @_ZNK3gmx20AbstractAnalysisData12dataSetCountEv(ptr noundef nonnull align 8 dereferenceable(16) %21)
          to label %23 unwind label %35

23:                                               ; preds = %19
  %24 = icmp slt i32 %20, %22
  br i1 %24, label %25, label %39

25:                                               ; preds = %23
  %26 = load ptr, ptr %4, align 8
  %27 = load i32, ptr %8, align 4
  %28 = invoke noundef i32 @_ZNK3gmx20AbstractAnalysisData11columnCountEi(ptr noundef nonnull align 8 dereferenceable(16) %26, i32 noundef %27)
          to label %29 unwind label %35

29:                                               ; preds = %25
  %30 = load i32, ptr %7, align 4
  %31 = add nsw i32 %30, %28
  store i32 %31, ptr %7, align 4
  br label %32

32:                                               ; preds = %29
  %33 = load i32, ptr %8, align 4
  %34 = add nsw i32 %33, 1
  store i32 %34, ptr %8, align 4
  br label %19, !llvm.loop !19

35:                                               ; preds = %39, %25, %19, %2
  %36 = landingpad { ptr, i32 }
          cleanup
  %37 = extractvalue { ptr, i32 } %36, 0
  store ptr %37, ptr %5, align 8
  %38 = extractvalue { ptr, i32 } %36, 1
  store i32 %38, ptr %6, align 4
  call void @_ZNSt6vectorIN3gmx17AnalysisDataValueESaIS1_EED2Ev(ptr noundef nonnull align 8 dereferenceable(24) %11) #12
  br label %44

39:                                               ; preds = %23
  %40 = getelementptr inbounds %"class.gmx::AnalysisDataStorageFrame", ptr %9, i32 0, i32 1
  %41 = load i32, ptr %7, align 4
  %42 = sext i32 %41 to i64
  invoke void @_ZNSt6vectorIN3gmx17AnalysisDataValueESaIS1_EE6resizeEm(ptr noundef nonnull align 8 dereferenceable(24) %40, i64 noundef %42)
          to label %43 unwind label %35

43:                                               ; preds = %39
  ret void

44:                                               ; preds = %35
  %45 = load ptr, ptr %5, align 8
  %46 = load i32, ptr %6, align 4
  %47 = insertvalue { ptr, i32 } poison, ptr %45, 0
  %48 = insertvalue { ptr, i32 } %47, i32 %46, 1
  resume { ptr, i32 } %48
}