; Function Attrs: mustprogress uwtable
define void @_ZN3gmx24AnalysisDataStorageFrameC2ERKNS_20AbstractAnalysisDataE(ptr noundef nonnull align 8 dereferenceable(45) %0, ptr noundef nonnull align 8 dereferenceable(16) %1) unnamed_addr #1 align 2 personality ptr @__gxx_personality_v0 {
  %3 = getelementptr inbounds i8, ptr %0, i64 8
  tail call void @llvm.memset.p0.i64(ptr noundef nonnull align 8 dereferenceable(40) %0, i8 0, i64 40, i1 false)
  %4 = invoke noundef i32 @_ZNK3gmx20AbstractAnalysisData11columnCountEi(ptr noundef nonnull align 8 dereferenceable(16) %1, i32 noundef 0)
          to label %5 unwind label %.loopexit.split-lp

5:                                                ; preds = %2
  %6 = getelementptr inbounds i8, ptr %0, i64 40
  store i32 %4, ptr %6, align 8
  %7 = getelementptr inbounds i8, ptr %0, i64 44
  store i8 0, ptr %7, align 4
  br label %8

8:                                                ; preds = %14, %5
  %.010 = phi i32 [ 0, %5 ], [ %15, %14 ]
  %.0 = phi i32 [ 0, %5 ], [ %16, %14 ]
  %9 = invoke noundef i32 @_ZNK3gmx20AbstractAnalysisData12dataSetCountEv(ptr noundef nonnull align 8 dereferenceable(16) %1)
          to label %10 unwind label %.loopexit

10:                                               ; preds = %8
  %11 = icmp slt i32 %.0, %9
  br i1 %11, label %12, label %20

12:                                               ; preds = %10
  %13 = invoke noundef i32 @_ZNK3gmx20AbstractAnalysisData11columnCountEi(ptr noundef nonnull align 8 dereferenceable(16) %1, i32 noundef %.0)
          to label %14 unwind label %.loopexit

14:                                               ; preds = %12
  %15 = add nsw i32 %13, %.010
  %16 = add nuw nsw i32 %.0, 1
  br label %8, !llvm.loop !54

.loopexit:                                        ; preds = %8, %12
  %lpad.loopexit = landingpad { ptr, i32 }
          cleanup
  br label %17

.loopexit.split-lp:                               ; preds = %2, %20
  %lpad.loopexit.split-lp = landingpad { ptr, i32 }
          cleanup
  br label %17

17:                                               ; preds = %.loopexit.split-lp, %.loopexit
  %lpad.phi = phi { ptr, i32 } [ %lpad.loopexit, %.loopexit ], [ %lpad.loopexit.split-lp, %.loopexit.split-lp ]
  %18 = load ptr, ptr %3, align 8
  %.not.i.i.i = icmp eq ptr %18, null
  br i1 %.not.i.i.i, label %_ZNSt6vectorIN3gmx17AnalysisDataValueESaIS1_EED2Ev.exit, label %19

19:                                               ; preds = %17
  tail call void @_ZdlPv(ptr noundef nonnull %18) #21
  br label %_ZNSt6vectorIN3gmx17AnalysisDataValueESaIS1_EED2Ev.exit

_ZNSt6vectorIN3gmx17AnalysisDataValueESaIS1_EED2Ev.exit: ; preds = %17, %19
  resume { ptr, i32 } %lpad.phi

20:                                               ; preds = %10
  %21 = sext i32 %.010 to i64
  invoke void @_ZNSt6vectorIN3gmx17AnalysisDataValueESaIS1_EE6resizeEm(ptr noundef nonnull align 8 dereferenceable(24) %3, i64 noundef %21)
          to label %22 unwind label %.loopexit.split-lp

22:                                               ; preds = %20
  ret void
}